(dp0
Vengine
p1
S'pdflatex'
p2
sVpackages
p3
c__builtin__
set
p4
((lp5
Vamsmath
p6
aVbiblatex
p7
aVinconsolata
p8
aVlscape
p9
aVenumerate
p10
aVmakeidx
p11
aVifthen
p12
aVkpfonts
p13
aVmulticol
p14
aVtitlesec
p15
aVwasysym
p16
aVsetspace
p17
aVcolor
p18
aVfootmisc
p19
aVparalist
p20
aVcalc
p21
aVvarioref
p22
aVverbatim
p23
aVmultirow
p24
aVchangepage
p25
aVgraphicx
p26
aVwrapfig
p27
aVhyperref
p28
aVsubfigure
p29
aVgeometry
p30
aVsoul
p31
aVcaption
p32
aVtextcomp
p33
aVepstopdf
p34
aVfontenc
p35
atp36
Rp37
sVfiles_with_guttermarks
p38
g4
((lp39
V/Users/dph/oi_biostat/oi_biostat_source/./ch_probability_oi_biostat/TeX/ch_probability_oi_biostat.tex
p40
aV/Users/dph/oi_biostat/oi_biostat_source/./ch_distributions_oi_biostat/TeX/ch_distributions_oi_biostat.tex
p41
aS'main.tex'
p42
aV/Users/dph/oi_biostat/oi_biostat_source/ch_intro_to_data_oi_biostat/TeX/ch_intro_to_data_oi_biostat.tex
p43
aV/Users/dph/oi_biostat/oi_biostat_source/ch_probability_oi_biostat/TeX/ch_probability_oi_biostat.tex
p44
aV/Users/dph/oi_biostat/oi_biostat_source/ch_distributions_oi_biostat/TeX/ch_distributions_oi_biostat.tex
p45
aV/Users/dph/oi_biostat/oi_biostat_source/ch_probability_oi_biostat/TeX/ch_probability_oi_biostat_ex.tex
p46
aV/Users/dph/oi_biostat/oi_biostat_source/./ch_intro_to_data_oi_biostat/TeX/ch_intro_to_data_oi_biostat.tex
p47
aV/Users/dph/oi_biostat/oi_biostat_source/./main.tex
p48
aV/Users/dph/oi_biostat/oi_biostat_source/extraTeX/preamble/preface_oi_biostat.tex
p49
aV/Users/dph/oi_biostat/oi_biostat_source/ch_intro_to_data_oi_biostat/TeX/ch_intro_to_data_oi_biostat_ex.tex
p50
aV/Users/dph/oi_biostat/oi_biostat_source/ch_inference_foundations_oi_biostat/TeX/ch_inference_foundations_oi_biostat_ex.tex
p51
atp52
Rp53
sVsynctex
p54
I01
s.