(dp0
Vengine
p1
S'pdflatex'
p2
sVpackages
p3
c__builtin__
set
p4
((lp5
Vcolor
p6
aVbiblatex
p7
aVlscape
p8
aVenumerate
p9
aVmakeidx
p10
aVifthen
p11
aVmulticol
p12
aVtitlesec
p13
aVwasysym
p14
aVsetspace
p15
aVamsmath
p16
aVfootmisc
p17
aVcalc
p18
aVvarioref
p19
aVverbatim
p20
aVmultirow
p21
aVchangepage
p22
aVgraphicx
p23
aVwrapfig
p24
aVhyperref
p25
aVsubfigure
p26
aVgeometry
p27
aVsoul
p28
aVcaption
p29
aVtextcomp
p30
aVepstopdf
p31
atp32
Rp33
sVfiles_with_guttermarks
p34
g4
((lp35
V/Users/dph/oi_biostat/oi_biostat_source/./extraTeX/eoceSolutions/eoceSolutions.tex
p36
aS'main.tex'
p37
aV/Users/dph/oi_biostat/oi_biostat_source/ch_intro_to_data_oi_biostat/TeX/ch_intro_to_data_oi_biostat.tex
p38
aV/Users/dph/oi_biostat/oi_biostat_source/extraTeX/eoceSolutions/eoceSolutions.tex
p39
aV/Users/dph/oi_biostat/oi_biostat_source/extraTeX/appendix/TeX/zTable.tex
p40
aV/Users/dph/oi_biostat/oi_biostat_source/./ch_intro_to_data_oi_biostat/TeX/ch_intro_to_data_oi_biostat.tex
p41
aV/Users/dph/oi_biostat/oi_biostat_source/./main.tex
p42
aV/Users/dph/oi_biostat/oi_biostat_source/extraTeX/preamble/preface_oi_biostat.tex
p43
aV/Users/dph/oi_biostat/oi_biostat_source/ch_inference_foundations_oi_biostat/TeX/ch_inference_foundations_oi_biostat_ex.tex
p44
atp45
Rp46
sVsynctex
p47
I01
s.