(dp0
Vengine
p1
S'pdflatex'
p2
sVsynctex
p3
I01
sVpackages
p4
c__builtin__
set
p5
((lp6
Vcolor
p7
aVbiblatex
p8
aVlscape
p9
aVenumerate
p10
aVmakeidx
p11
aVifthen
p12
aVmulticol
p13
aVtitlesec
p14
aVwasysym
p15
aVsetspace
p16
aVamsmath
p17
aVfootmisc
p18
aVcalc
p19
aVvarioref
p20
aVverbatim
p21
aVmultirow
p22
aVchangepage
p23
aVgraphicx
p24
aVwrapfig
p25
aVhyperref
p26
aVsubfigure
p27
aVgeometry
p28
aVsoul
p29
aVcaption
p30
aVtextcomp
p31
aVepstopdf
p32
atp33
Rp34
sVfiles_with_guttermarks
p35
g5
((lp36
V/Users/dph/oi_biostat/oi_biostat_source/./extraTeX/eoceSolutions/eoceSolutions.tex
p37
aV/Users/dph/oi_biostat/oi_biostat_source/./main.tex
p38
aV/Users/dph/oi_biostat/oi_biostat_source/ch_intro_to_data_oi_biostat/TeX/ch_intro_to_data_oi_biostat.tex
p39
aV/Users/dph/oi_biostat/oi_biostat_source/extraTeX/eoceSolutions/eoceSolutions.tex
p40
aV/Users/dph/oi_biostat/oi_biostat_source/extraTeX/appendix/TeX/zTable.tex
p41
aV/Users/dph/oi_biostat/oi_biostat_source/./ch_intro_to_data_oi_biostat/TeX/ch_intro_to_data_oi_biostat.tex
p42
aS'main.tex'
p43
aV/Users/dph/oi_biostat/oi_biostat_source/extraTeX/preamble/preface_oi_biostat.tex
p44
aV/Users/dph/oi_biostat/oi_biostat_source/ch_inference_foundations_oi_biostat/TeX/ch_inference_foundations_oi_biostat_ex.tex
p45
atp46
Rp47
s.