(dp0
Vengine
p1
S'pdflatex'
p2
sVpackages
p3
c__builtin__
set
p4
((lp5
Vamsmath
p6
aVbiblatex
p7
aVlscape
p8
aVenumerate
p9
aVmakeidx
p10
aVifthen
p11
aVkpfonts
p12
aVmulticol
p13
aVtitlesec
p14
aVwasysym
p15
aVsetspace
p16
aVcolor
p17
aVfootmisc
p18
aVparalist
p19
aVcalc
p20
aVvarioref
p21
aVverbatim
p22
aVmultirow
p23
aVchangepage
p24
aVgraphicx
p25
aVwrapfig
p26
aVhyperref
p27
aVsubfigure
p28
aVgeometry
p29
aVsoul
p30
aVcaption
p31
aVtextcomp
p32
aVepstopdf
p33
aVfontenc
p34
atp35
Rp36
sVfiles_with_guttermarks
p37
g4
((lp38
S'main.tex'
p39
aV/Users/dph/oi_biostat/oi_biostat_source/ch_intro_to_data_oi_biostat/TeX/ch_intro_to_data_oi_biostat.tex
p40
aV/Users/dph/oi_biostat/oi_biostat_source/./ch_intro_to_data_oi_biostat/TeX/ch_intro_to_data_oi_biostat.tex
p41
aV/Users/dph/oi_biostat/oi_biostat_source/./main.tex
p42
aV/Users/dph/oi_biostat/oi_biostat_source/extraTeX/preamble/preface_oi_biostat.tex
p43
aV/Users/dph/oi_biostat/oi_biostat_source/ch_intro_to_data_oi_biostat/TeX/ch_intro_to_data_oi_biostat_ex.tex
p44
aV/Users/dph/oi_biostat/oi_biostat_source/ch_inference_foundations_oi_biostat/TeX/ch_inference_foundations_oi_biostat_ex.tex
p45
atp46
Rp47
sVsynctex
p48
I01
s.