(dp0
Vengine
p1
S'pdflatex'
p2
sVpackages
p3
c__builtin__
set
p4
((lp5
tp6
Rp7
sVfiles_with_guttermarks
p8
g4
((lp9
V/Users/dph/oi_biostat/oi_biostat_source/ch_intro_to_data_oi_biostat/TeX/ch_intro_to_data_oi_biostat.tex
p10
aS'ch_intro_to_data_oi_biostat.tex'
p11
aV/Users/dph/oi_biostat/oi_biostat_source/ch_intro_to_data_oi_biostat/TeX/./ch_intro_to_data_oi_biostat.tex
p12
atp13
Rp14
sVsynctex
p15
I01
s.